Certificate:
    Data:
        Version: 3 (0x2)
        Serial Number: 4097 (0x1001)
    Signature Algorithm: sha1WithRSAEncryption
        Issuer: C=SE, ST=Some-State, L=Stockholm, O=Internet Widgits Pty Ltd/emailAddress=oscarme@kth.se
        Validity
            Not Before: Dec 15 13:47:06 2016 GMT
            Not After : Dec 15 13:47:06 2017 GMT
        Subject: C=SE, ST=Some-State, L=Stockholm, O=Internet Widgits Pty Ltd
        Subject Public Key Info:
            Public Key Algorithm: rsaEncryption
                Public-Key: (1024 bit)
                Modulus:
                    00:c5:49:89:12:eb:21:cd:f0:5b:bd:b5:6c:f2:68:
                    04:86:a1:29:52:cc:fb:d4:1e:d3:9e:ea:3d:cc:b7:
                    05:4e:de:ca:b3:d3:d6:ef:73:9e:dd:a6:f1:24:11:
                    ac:39:28:98:43:11:7a:33:44:fe:60:07:95:38:84:
                    cf:94:e7:bd:eb:bf:5e:f0:18:ea:f6:5e:bc:95:2b:
                    b4:10:dc:ec:64:f3:db:38:6f:a2:00:f0:99:df:bf:
                    67:c3:7d:95:00:df:59:8b:d9:0a:3e:05:f8:43:1f:
                    51:82:87:bf:24:6d:46:08:2d:83:72:00:f1:8b:e7:
                    79:8b:f0:23:a0:d5:2b:89:9f
                Exponent: 65537 (0x10001)
        X509v3 extensions:
            X509v3 Basic Constraints: 
                CA:FALSE
            Netscape Comment: 
                OpenSSL Generated Certificate
            X509v3 Subject Key Identifier: 
                A3:2F:DA:AD:AA:9C:56:0C:24:EF:F0:81:8A:26:80:23:B6:FF:08:05
            X509v3 Authority Key Identifier: 
                keyid:AD:5A:DE:12:51:BB:B2:38:49:6E:13:8D:E4:16:3F:19:88:63:70:3A

    Signature Algorithm: sha1WithRSAEncryption
         6c:7a:c5:f1:a9:5b:69:32:0e:e0:b3:44:a8:d6:5b:92:17:80:
         5e:7b:44:bb:87:4b:15:da:8f:cd:7e:2e:55:d9:a0:01:7f:63:
         c8:63:fa:21:1f:6f:2e:fe:fd:14:78:2b:2d:72:01:97:e7:57:
         08:8e:2c:82:99:6b:32:54:9b:45:70:f6:00:de:07:ca:c2:59:
         8d:a8:a8:03:9b:42:02:25:55:e8:7f:42:67:83:2f:24:66:06:
         f8:30:93:7d:87:95:3d:c4:e8:9e:df:7d:f8:cc:17:5b:8f:f8:
         f4:29:48:0a:10:fe:b3:5e:9f:ef:fd:dd:ca:67:0d:74:e2:6f:
         3e:92
-----BEGIN CERTIFICATE-----
MIICwzCCAiygAwIBAgICEAEwDQYJKoZIhvcNAQEFBQAweDELMAkGA1UEBhMCU0Ux
EzARBgNVBAgMClNvbWUtU3RhdGUxEjAQBgNVBAcMCVN0b2NraG9sbTEhMB8GA1UE
CgwYSW50ZXJuZXQgV2lkZ2l0cyBQdHkgTHRkMR0wGwYJKoZIhvcNAQkBFg5vc2Nh
cm1lQGt0aC5zZTAeFw0xNjEyMTUxMzQ3MDZaFw0xNzEyMTUxMzQ3MDZaMFkxCzAJ
BgNVBAYTAlNFMRMwEQYDVQQIDApTb21lLVN0YXRlMRIwEAYDVQQHDAlTdG9ja2hv
bG0xITAfBgNVBAoMGEludGVybmV0IFdpZGdpdHMgUHR5IEx0ZDCBnzANBgkqhkiG
9w0BAQEFAAOBjQAwgYkCgYEAxUmJEushzfBbvbVs8mgEhqEpUsz71B7Tnuo9zLcF
Tt7Ks9PW73Oe3abxJBGsOSiYQxF6M0T+YAeVOITPlOe9679e8Bjq9l68lSu0ENzs
ZPPbOG+iAPCZ379nw32VAN9Zi9kKPgX4Qx9Rgoe/JG1GCC2DcgDxi+d5i/AjoNUr
iZ8CAwEAAaN7MHkwCQYDVR0TBAIwADAsBglghkgBhvhCAQ0EHxYdT3BlblNTTCBH
ZW5lcmF0ZWQgQ2VydGlmaWNhdGUwHQYDVR0OBBYEFKMv2q2qnFYMJO/wgYomgCO2
/wgFMB8GA1UdIwQYMBaAFK1a3hJRu7I4SW4TjeQWPxmIY3A6MA0GCSqGSIb3DQEB
BQUAA4GBAGx6xfGpW2kyDuCzRKjWW5IXgF57RLuHSxXaj81+LlXZoAF/Y8hj+iEf
by7+/RR4Ky1yAZfnVwiOLIKZazJUm0Vw9gDeB8rCWY2oqAObQgIlVeh/QmeDLyRm
Bvgwk32HlT3E6J7fffjMF1uP+PQpSAoQ/rNen+/93cpnDXTibz6S
-----END CERTIFICATE-----
